((idysin
Mood
p0
(dp1
S'emotion'
p2
S'normal'
p3
sS'stopMoving'
p4
I00
sS'love'
p5
F1.4629999999999985
sS'tired'
p6
F1.0
sS'familiar'
p7
F28.0
sS'angry'
p8
F1.0
sS'hate'
p9
F1.0
sS'shyness'
p10
F1.0
sS'horror'
p11
F1.0
sS'relation'
p12
S'strange'
p13
sS'interest'
p14
F1.0
sS'fear'
p15
F1.0
sS'friendship'
p16
F1.0
sS'sorrow'
p17
F1.0
sS'surprised'
p18
F1.0
sS'happy'
p19
F1.0
sbI00
V\u2026\u2026
p20
tp21
.