((idysin
Mood
p0
(dp1
S'emotion'
p2
S'happy'
p3
sS'stopMoving'
p4
I00
sS'love'
p5
F120.24699999999996
sS'tired'
p6
F13.599999999999962
sS'familiar'
p7
F716.0
sS'angry'
p8
F1.0
sS'hate'
p9
F1.0
sS'shyness'
p10
F3.5999999999999996
sS'horror'
p11
F1.0
sS'interest'
p12
F-0.6999999999999997
sS'relation'
p13
S'lover'
p14
sS'fear'
p15
F1.0
sS'friendship'
p16
F121.71399999999996
sS'sorrow'
p17
F1.0
sS'surprised'
p18
F1.0
sg3
F4.0
sbI00
S'MyName'
p19
tp20
.