((idysin
Mood
p0
(dp1
S'emotion'
p2
S'normal'
p3
sS'stopMoving'
p4
I00
sS'love'
p5
F1.0
sS'tired'
p6
F17.399999999999984
sS'familiar'
p7
F708.0
sS'angry'
p8
F1.0
sS'hate'
p9
F1.0
sS'shyness'
p10
F1.0
sS'horror'
p11
F1.0
sS'interest'
p12
F0.39999999999999997
sS'relation'
p13
g3
sS'fear'
p14
F1.0
sS'friendship'
p15
F1.0
sS'sorrow'
p16
F1.0
sS'surprised'
p17
F1.0
sS'happy'
p18
F1.0
sbI00
S'MyName'
p19
tp20
.